target datalayout = "e-m:e-p270:32:32-p271:32:32-p272:64:64-i64:64-i128:128-f80:128-n8:16:32:64-S128"
target triple = "x86_64-pc-linux-gnu"

%struct.OSQPVectorf_ = type { ptr, i64 }

; Function Attrs: nounwind uwtable
define void @OSQPVectorf_ew_reciprocal(ptr noundef %0, ptr noundef %1) #0 {
  %3 = alloca ptr, align 8
  %4 = alloca ptr, align 8
  %5 = alloca i64, align 8
  %6 = alloca i64, align 8
  %7 = alloca ptr, align 8
  %8 = alloca ptr, align 8
  store ptr %0, ptr %3, align 8
  store ptr %1, ptr %4, align 8
  %9 = load ptr, ptr %4, align 8
  %10 = getelementptr inbounds %struct.OSQPVectorf_, ptr %9, i32 0, i32 1
  %11 = load i64, ptr %10, align 8
  store i64 %11, ptr %6, align 8
  %12 = load ptr, ptr %4, align 8
  %13 = getelementptr inbounds %struct.OSQPVectorf_, ptr %12, i32 0, i32 0
  %14 = load ptr, ptr %13, align 8
  store ptr %14, ptr %7, align 8
  %15 = load ptr, ptr %3, align 8
  %16 = getelementptr inbounds %struct.OSQPVectorf_, ptr %15, i32 0, i32 0
  %17 = load ptr, ptr %16, align 8
  store ptr %17, ptr %8, align 8
  store i64 0, ptr %5, align 8
  br label %18

18:                                               ; preds = %31, %2
  %19 = load i64, ptr %5, align 8
  %20 = load i64, ptr %6, align 8
  %21 = icmp slt i64 %19, %20
  br i1 %21, label %22, label %34

22:                                               ; preds = %18
  %23 = load ptr, ptr %7, align 8
  %24 = load i64, ptr %5, align 8
  %25 = getelementptr inbounds double, ptr %23, i64 %24
  %26 = load double, ptr %25, align 8
  %27 = fdiv double 1.000000e+00, %26
  %28 = load ptr, ptr %8, align 8
  %29 = load i64, ptr %5, align 8
  %30 = getelementptr inbounds double, ptr %28, i64 %29
  store double %27, ptr %30, align 8
  br label %31

31:                                               ; preds = %22
  %32 = load i64, ptr %5, align 8
  %33 = add nsw i64 %32, 1
  store i64 %33, ptr %5, align 8
  br label %18, !llvm.loop !41

34:                                               ; preds = %18
  ret void
}