; Function Attrs: nofree norecurse nosync nounwind memory(readwrite, inaccessiblemem: none) uwtable
define void @OSQPVectorf_ew_reciprocal(ptr nocapture noundef readonly %0, ptr nocapture noundef readonly %1) local_unnamed_addr #7 {
  %3 = getelementptr inbounds i8, ptr %1, i64 8
  %4 = load i64, ptr %3, align 8
  %5 = load ptr, ptr %1, align 8
  %6 = load ptr, ptr %0, align 8
  %7 = icmp sgt i64 %4, 0
  br i1 %7, label %.lr.ph, label %._crit_edge

.lr.ph:                                           ; preds = %2, %.lr.ph
  %.09 = phi i64 [ %12, %.lr.ph ], [ 0, %2 ]
  %8 = getelementptr inbounds double, ptr %5, i64 %.09
  %9 = load double, ptr %8, align 8
  %10 = fdiv double 1.000000e+00, %9
  %11 = getelementptr inbounds double, ptr %6, i64 %.09
  store double %10, ptr %11, align 8
  %12 = add nuw nsw i64 %.09, 1
  %exitcond.not = icmp eq i64 %12, %4
  br i1 %exitcond.not, label %._crit_edge, label %.lr.ph, !llvm.loop !41

._crit_edge:                                      ; preds = %.lr.ph, %2
  ret void
}